target datalayout = "e-m:e-p270:32:32-p271:32:32-p272:64:64-i64:64-i128:128-f80:128-n8:16:32:64-S128"
target triple = "x86_64-pc-linux-gnu"

%"class.LIEF::MachO::LoadCommand" = type { %"class.LIEF::Object", %"class.std::vector", i64, i32, i64 }
%"class.LIEF::Object" = type { ptr }
%"class.std::vector" = type { %"struct.std::_Vector_base" }
%"struct.std::_Vector_base" = type { %"struct.std::_Vector_base<unsigned char, std::allocator<unsigned char>>::_Vector_impl" }
%"struct.std::_Vector_base<unsigned char, std::allocator<unsigned char>>::_Vector_impl" = type { %"struct.std::_Vector_base<unsigned char, std::allocator<unsigned char>>::_Vector_impl_data" }
%"struct.std::_Vector_base<unsigned char, std::allocator<unsigned char>>::_Vector_impl_data" = type { ptr, ptr, ptr }
%"class.LIEF::MachO::VersionMin" = type { %"class.LIEF::MachO::LoadCommand", %"struct.std::array", %"struct.std::array" }
%"struct.std::array" = type { [3 x i32] }
%"struct.std::_Setw" = type { i32 }

@.str = private unnamed_addr constant [10 x i8] c"Version: \00", align 1
@.str.1 = private unnamed_addr constant [2 x i8] c".\00", align 1
@.str.2 = private unnamed_addr constant [6 x i8] c"SDK: \00", align 1

; Function Attrs: mustprogress nounwind uwtable
define linkonce_odr hidden noundef nonnull align 4 dereferenceable(4) ptr @_ZNSt14__array_traitsIjLm3EE6_S_refERA3_Kjm(ptr noundef nonnull align 4 dereferenceable(12) %0, i64 noundef %1) #4 comdat align 2 {
  %3 = alloca ptr, align 8
  %4 = alloca i64, align 8
  store ptr %0, ptr %3, align 8
  store i64 %1, ptr %4, align 8
  %5 = load ptr, ptr %3, align 8
  %6 = load i64, ptr %4, align 8
  %7 = getelementptr inbounds [3 x i32], ptr %5, i64 0, i64 %6
  ret ptr %7
}

; Function Attrs: mustprogress nounwind uwtable
define linkonce_odr hidden noundef nonnull align 4 dereferenceable(4) ptr @_ZNKSt5arrayIjLm3EEixEm(ptr noundef nonnull align 4 dereferenceable(12) %0, i64 noundef %1) #4 comdat align 2 {
  %3 = alloca ptr, align 8
  %4 = alloca i64, align 8
  store ptr %0, ptr %3, align 8
  store i64 %1, ptr %4, align 8
  %5 = load ptr, ptr %3, align 8
  %6 = getelementptr inbounds %"struct.std::array", ptr %5, i32 0, i32 0
  %7 = load i64, ptr %4, align 8
  %8 = call noundef nonnull align 4 dereferenceable(4) ptr @_ZNSt14__array_traitsIjLm3EE6_S_refERA3_Kjm(ptr noundef nonnull align 4 dereferenceable(12) %6, i64 noundef %7) #7
  ret ptr %8
}

; Function Attrs: mustprogress nounwind uwtable
define linkonce_odr i32 @_ZSt4setwi(i32 noundef %0) #4 comdat {
  %2 = alloca %"struct.std::_Setw", align 4
  %3 = alloca i32, align 4
  store i32 %0, ptr %3, align 4
  %4 = getelementptr inbounds %"struct.std::_Setw", ptr %2, i32 0, i32 0
  %5 = load i32, ptr %3, align 4
  store i32 %5, ptr %4, align 4
  %6 = getelementptr inbounds %"struct.std::_Setw", ptr %2, i32 0, i32 0
  %7 = load i32, ptr %6, align 4
  ret i32 %7
}

; Function Attrs: mustprogress nounwind uwtable
define noundef nonnull align 4 dereferenceable(12) ptr @_ZNK4LIEF5MachO10VersionMin3sdkEv(ptr noundef nonnull align 8 dereferenceable(80) %0) #4 align 2 {
  %2 = alloca ptr, align 8
  store ptr %0, ptr %2, align 8
  %3 = load ptr, ptr %2, align 8
  %4 = getelementptr inbounds %"class.LIEF::MachO::VersionMin", ptr %3, i32 0, i32 2
  ret ptr %4
}

; Function Attrs: mustprogress nounwind uwtable
define noundef nonnull align 4 dereferenceable(12) ptr @_ZNK4LIEF5MachO10VersionMin7versionEv(ptr noundef nonnull align 8 dereferenceable(80) %0) #4 align 2 {
  %2 = alloca ptr, align 8
  store ptr %0, ptr %2, align 8
  %3 = load ptr, ptr %2, align 8
  %4 = getelementptr inbounds %"class.LIEF::MachO::VersionMin", ptr %3, i32 0, i32 1
  ret ptr %4
}

; Function Attrs: mustprogress uwtable
define noundef nonnull align 8 dereferenceable(8) ptr @_ZNK4LIEF5MachO10VersionMin5printERSo(ptr noundef nonnull align 8 dereferenceable(80) %0, ptr noundef nonnull align 8 dereferenceable(8) %1) unnamed_addr #0 align 2 {
  %3 = alloca ptr, align 8
  %4 = alloca ptr, align 8
  %5 = alloca ptr, align 8
  %6 = alloca ptr, align 8
  %7 = alloca %"struct.std::_Setw", align 4
  %8 = alloca %"struct.std::_Setw", align 4
  store ptr %0, ptr %3, align 8
  store ptr %1, ptr %4, align 8
  %9 = load ptr, ptr %3, align 8
  %10 = load ptr, ptr %4, align 8
  %11 = call noundef nonnull align 8 dereferenceable(8) ptr @_ZNK4LIEF5MachO11LoadCommand5printERSo(ptr noundef nonnull align 8 dereferenceable(56) %9, ptr noundef nonnull align 8 dereferenceable(8) %10)
  %12 = call noundef nonnull align 4 dereferenceable(12) ptr @_ZNK4LIEF5MachO10VersionMin7versionEv(ptr noundef nonnull align 8 dereferenceable(80) %9)
  store ptr %12, ptr %5, align 8
  %13 = call noundef nonnull align 4 dereferenceable(12) ptr @_ZNK4LIEF5MachO10VersionMin3sdkEv(ptr noundef nonnull align 8 dereferenceable(80) %9)
  store ptr %13, ptr %6, align 8
  %14 = load ptr, ptr %4, align 8
  %15 = call i32 @_ZSt4setwi(i32 noundef 10)
  %16 = getelementptr inbounds %"struct.std::_Setw", ptr %7, i32 0, i32 0
  store i32 %15, ptr %16, align 4
  %17 = getelementptr inbounds %"struct.std::_Setw", ptr %7, i32 0, i32 0
  %18 = load i32, ptr %17, align 4
  %19 = call noundef nonnull align 8 dereferenceable(8) ptr @_ZStlsIcSt11char_traitsIcEERSt13basic_ostreamIT_T0_ES6_St5_Setw(ptr noundef nonnull align 8 dereferenceable(8) %14, i32 %18)
  %20 = call noundef nonnull align 8 dereferenceable(8) ptr @_ZStlsISt11char_traitsIcEERSt13basic_ostreamIcT_ES5_PKc(ptr noundef nonnull align 8 dereferenceable(8) %19, ptr noundef @.str)
  %21 = call noundef nonnull align 8 dereferenceable(8) ptr @_ZNSolsEPFRSt8ios_baseS0_E(ptr noundef nonnull align 8 dereferenceable(8) %20, ptr noundef @_ZSt3decRSt8ios_base)
  %22 = load ptr, ptr %5, align 8
  %23 = call noundef nonnull align 4 dereferenceable(4) ptr @_ZNKSt5arrayIjLm3EEixEm(ptr noundef nonnull align 4 dereferenceable(12) %22, i64 noundef 0) #7
  %24 = load i32, ptr %23, align 4
  %25 = call noundef nonnull align 8 dereferenceable(8) ptr @_ZNSolsEj(ptr noundef nonnull align 8 dereferenceable(8) %21, i32 noundef %24)
  %26 = call noundef nonnull align 8 dereferenceable(8) ptr @_ZStlsISt11char_traitsIcEERSt13basic_ostreamIcT_ES5_PKc(ptr noundef nonnull align 8 dereferenceable(8) %25, ptr noundef @.str.1)
  %27 = load ptr, ptr %5, align 8
  %28 = call noundef nonnull align 4 dereferenceable(4) ptr @_ZNKSt5arrayIjLm3EEixEm(ptr noundef nonnull align 4 dereferenceable(12) %27, i64 noundef 1) #7
  %29 = load i32, ptr %28, align 4
  %30 = call noundef nonnull align 8 dereferenceable(8) ptr @_ZNSolsEj(ptr noundef nonnull align 8 dereferenceable(8) %26, i32 noundef %29)
  %31 = call noundef nonnull align 8 dereferenceable(8) ptr @_ZStlsISt11char_traitsIcEERSt13basic_ostreamIcT_ES5_PKc(ptr noundef nonnull align 8 dereferenceable(8) %30, ptr noundef @.str.1)
  %32 = load ptr, ptr %5, align 8
  %33 = call noundef nonnull align 4 dereferenceable(4) ptr @_ZNKSt5arrayIjLm3EEixEm(ptr noundef nonnull align 4 dereferenceable(12) %32, i64 noundef 2) #7
  %34 = load i32, ptr %33, align 4
  %35 = call noundef nonnull align 8 dereferenceable(8) ptr @_ZNSolsEj(ptr noundef nonnull align 8 dereferenceable(8) %31, i32 noundef %34)
  %36 = call noundef nonnull align 8 dereferenceable(8) ptr @_ZNSolsEPFRSoS_E(ptr noundef nonnull align 8 dereferenceable(8) %35, ptr noundef @_ZSt4endlIcSt11char_traitsIcEERSt13basic_ostreamIT_T0_ES6_)
  %37 = load ptr, ptr %4, align 8
  %38 = call i32 @_ZSt4setwi(i32 noundef 10)
  %39 = getelementptr inbounds %"struct.std::_Setw", ptr %8, i32 0, i32 0
  store i32 %38, ptr %39, align 4
  %40 = getelementptr inbounds %"struct.std::_Setw", ptr %8, i32 0, i32 0
  %41 = load i32, ptr %40, align 4
  %42 = call noundef nonnull align 8 dereferenceable(8) ptr @_ZStlsIcSt11char_traitsIcEERSt13basic_ostreamIT_T0_ES6_St5_Setw(ptr noundef nonnull align 8 dereferenceable(8) %37, i32 %41)
  %43 = call noundef nonnull align 8 dereferenceable(8) ptr @_ZStlsISt11char_traitsIcEERSt13basic_ostreamIcT_ES5_PKc(ptr noundef nonnull align 8 dereferenceable(8) %42, ptr noundef @.str.2)
  %44 = call noundef nonnull align 8 dereferenceable(8) ptr @_ZNSolsEPFRSt8ios_baseS0_E(ptr noundef nonnull align 8 dereferenceable(8) %43, ptr noundef @_ZSt3decRSt8ios_base)
  %45 = load ptr, ptr %6, align 8
  %46 = call noundef nonnull align 4 dereferenceable(4) ptr @_ZNKSt5arrayIjLm3EEixEm(ptr noundef nonnull align 4 dereferenceable(12) %45, i64 noundef 0) #7
  %47 = load i32, ptr %46, align 4
  %48 = call noundef nonnull align 8 dereferenceable(8) ptr @_ZNSolsEj(ptr noundef nonnull align 8 dereferenceable(8) %44, i32 noundef %47)
  %49 = call noundef nonnull align 8 dereferenceable(8) ptr @_ZStlsISt11char_traitsIcEERSt13basic_ostreamIcT_ES5_PKc(ptr noundef nonnull align 8 dereferenceable(8) %48, ptr noundef @.str.1)
  %50 = load ptr, ptr %6, align 8
  %51 = call noundef nonnull align 4 dereferenceable(4) ptr @_ZNKSt5arrayIjLm3EEixEm(ptr noundef nonnull align 4 dereferenceable(12) %50, i64 noundef 1) #7
  %52 = load i32, ptr %51, align 4
  %53 = call noundef nonnull align 8 dereferenceable(8) ptr @_ZNSolsEj(ptr noundef nonnull align 8 dereferenceable(8) %49, i32 noundef %52)
  %54 = call noundef nonnull align 8 dereferenceable(8) ptr @_ZStlsISt11char_traitsIcEERSt13basic_ostreamIcT_ES5_PKc(ptr noundef nonnull align 8 dereferenceable(8) %53, ptr noundef @.str.1)
  %55 = load ptr, ptr %6, align 8
  %56 = call noundef nonnull align 4 dereferenceable(4) ptr @_ZNKSt5arrayIjLm3EEixEm(ptr noundef nonnull align 4 dereferenceable(12) %55, i64 noundef 2) #7
  %57 = load i32, ptr %56, align 4
  %58 = call noundef nonnull align 8 dereferenceable(8) ptr @_ZNSolsEj(ptr noundef nonnull align 8 dereferenceable(8) %54, i32 noundef %57)
  %59 = call noundef nonnull align 8 dereferenceable(8) ptr @_ZNSolsEPFRSoS_E(ptr noundef nonnull align 8 dereferenceable(8) %58, ptr noundef @_ZSt4endlIcSt11char_traitsIcEERSt13basic_ostreamIT_T0_ES6_)
  %60 = load ptr, ptr %4, align 8
  ret ptr %60
}